target datalayout = "e-m:e-p270:32:32-p271:32:32-p272:64:64-i64:64-i128:128-f80:128-n8:16:32:64-S128"
target triple = "x86_64-pc-linux-gnu"

%struct.lean_object = type { i32, i32 }

@l_Lean_Meta_Grind_Canon_instReprShouldCanonResult___closed__2 = internal global ptr null, align 8
@l_Lean_Meta_Grind_Canon_instReprShouldCanonResult___closed__4 = internal global ptr null, align 8
@l_Lean_Meta_Grind_Canon_instReprShouldCanonResult___closed__6 = internal global ptr null, align 8
@l_Lean_Meta_Grind_Canon_instReprShouldCanonResult___closed__8 = internal global ptr null, align 8

; Function Attrs: alwaysinline nounwind uwtable
define internal void @lean_dec_ref(ptr noundef %0) #1 {
  %2 = alloca ptr, align 8
  store ptr %0, ptr %2, align 8, !tbaa !8
  %3 = load ptr, ptr %2, align 8, !tbaa !8
  %4 = getelementptr inbounds nuw %struct.lean_object, ptr %3, i32 0, i32 0
  %5 = load i32, ptr %4, align 4, !tbaa !13
  %6 = icmp sgt i32 %5, 1
  %7 = zext i1 %6 to i32
  %8 = sext i32 %7 to i64
  %9 = call i64 @llvm.expect.i64(i64 %8, i64 1)
  %10 = icmp ne i64 %9, 0
  br i1 %10, label %11, label %16

11:                                               ; preds = %1
  %12 = load ptr, ptr %2, align 8, !tbaa !8
  %13 = getelementptr inbounds nuw %struct.lean_object, ptr %12, i32 0, i32 0
  %14 = load i32, ptr %13, align 4, !tbaa !13
  %15 = add i32 %14, -1
  store i32 %15, ptr %13, align 4, !tbaa !13
  br label %24

16:                                               ; preds = %1
  %17 = load ptr, ptr %2, align 8, !tbaa !8
  %18 = getelementptr inbounds nuw %struct.lean_object, ptr %17, i32 0, i32 0
  %19 = load i32, ptr %18, align 4, !tbaa !13
  %20 = icmp ne i32 %19, 0
  br i1 %20, label %21, label %23

21:                                               ; preds = %16
  %22 = load ptr, ptr %2, align 8, !tbaa !8
  call void @lean_dec_ref_cold(ptr noundef %22)
  br label %23

23:                                               ; preds = %21, %16
  br label %24

24:                                               ; preds = %23, %11
  ret void
}

; Function Attrs: alwaysinline nounwind uwtable
define internal zeroext i1 @lean_is_scalar(ptr noundef %0) #1 {
  %2 = alloca ptr, align 8
  store ptr %0, ptr %2, align 8, !tbaa !8
  %3 = load ptr, ptr %2, align 8, !tbaa !8
  %4 = ptrtoint ptr %3 to i64
  %5 = and i64 %4, 1
  %6 = icmp eq i64 %5, 1
  ret i1 %6
}

; Function Attrs: nounwind uwtable
define ptr @l_Lean_Meta_Grind_Canon_instReprShouldCanonResult(i8 noundef zeroext %0, ptr noundef %1) #2 {
  %3 = alloca ptr, align 8
  %4 = alloca i8, align 1
  %5 = alloca ptr, align 8
  %6 = alloca ptr, align 8
  %7 = alloca ptr, align 8
  %8 = alloca ptr, align 8
  %9 = alloca ptr, align 8
  store i8 %0, ptr %4, align 1, !tbaa !12
  store ptr %1, ptr %5, align 8, !tbaa !8
  br label %10

10:                                               ; preds = %2
  %11 = load i8, ptr %4, align 1, !tbaa !12
  %12 = zext i8 %11 to i32
  switch i32 %12, label %22 [
    i32 0, label %13
    i32 1, label %16
    i32 2, label %19
  ]

13:                                               ; preds = %10
  call void @llvm.lifetime.start.p0(i64 8, ptr %6) #7
  %14 = load ptr, ptr @l_Lean_Meta_Grind_Canon_instReprShouldCanonResult___closed__2, align 8, !tbaa !8
  store ptr %14, ptr %6, align 8, !tbaa !8
  %15 = load ptr, ptr %6, align 8, !tbaa !8
  store ptr %15, ptr %3, align 8
  call void @llvm.lifetime.end.p0(i64 8, ptr %6) #7
  br label %25

16:                                               ; preds = %10
  call void @llvm.lifetime.start.p0(i64 8, ptr %7) #7
  %17 = load ptr, ptr @l_Lean_Meta_Grind_Canon_instReprShouldCanonResult___closed__4, align 8, !tbaa !8
  store ptr %17, ptr %7, align 8, !tbaa !8
  %18 = load ptr, ptr %7, align 8, !tbaa !8
  store ptr %18, ptr %3, align 8
  call void @llvm.lifetime.end.p0(i64 8, ptr %7) #7
  br label %25

19:                                               ; preds = %10
  call void @llvm.lifetime.start.p0(i64 8, ptr %8) #7
  %20 = load ptr, ptr @l_Lean_Meta_Grind_Canon_instReprShouldCanonResult___closed__6, align 8, !tbaa !8
  store ptr %20, ptr %8, align 8, !tbaa !8
  %21 = load ptr, ptr %8, align 8, !tbaa !8
  store ptr %21, ptr %3, align 8
  call void @llvm.lifetime.end.p0(i64 8, ptr %8) #7
  br label %25

22:                                               ; preds = %10
  call void @llvm.lifetime.start.p0(i64 8, ptr %9) #7
  %23 = load ptr, ptr @l_Lean_Meta_Grind_Canon_instReprShouldCanonResult___closed__8, align 8, !tbaa !8
  store ptr %23, ptr %9, align 8, !tbaa !8
  %24 = load ptr, ptr %9, align 8, !tbaa !8
  store ptr %24, ptr %3, align 8
  call void @llvm.lifetime.end.p0(i64 8, ptr %9) #7
  br label %25

25:                                               ; preds = %22, %19, %16, %13
  %26 = load ptr, ptr %3, align 8
  ret ptr %26
}

; Function Attrs: alwaysinline nounwind uwtable
define internal void @lean_dec(ptr noundef %0) #1 {
  %2 = alloca ptr, align 8
  store ptr %0, ptr %2, align 8, !tbaa !8
  %3 = load ptr, ptr %2, align 8, !tbaa !8
  %4 = call zeroext i1 @lean_is_scalar(ptr noundef %3)
  br i1 %4, label %7, label %5

5:                                                ; preds = %1
  %6 = load ptr, ptr %2, align 8, !tbaa !8
  call void @lean_dec_ref(ptr noundef %6)
  br label %7

7:                                                ; preds = %5, %1
  ret void
}

; Function Attrs: inlinehint nounwind uwtable
define internal i64 @lean_unbox(ptr noundef %0) #0 {
  %2 = alloca ptr, align 8
  store ptr %0, ptr %2, align 8, !tbaa !8
  %3 = load ptr, ptr %2, align 8, !tbaa !8
  %4 = ptrtoint ptr %3 to i64
  %5 = lshr i64 %4, 1
  ret i64 %5
}

; Function Attrs: nounwind uwtable
define ptr @l_Lean_Meta_Grind_Canon_instReprShouldCanonResult___boxed(ptr noundef %0, ptr noundef %1) #2 {
  %3 = alloca ptr, align 8
  %4 = alloca ptr, align 8
  %5 = alloca i8, align 1
  %6 = alloca ptr, align 8
  store ptr %0, ptr %3, align 8, !tbaa !8
  store ptr %1, ptr %4, align 8, !tbaa !8
  br label %7

7:                                                ; preds = %2
  call void @llvm.lifetime.start.p0(i64 1, ptr %5) #7
  call void @llvm.lifetime.start.p0(i64 8, ptr %6) #7
  %8 = load ptr, ptr %3, align 8, !tbaa !8
  %9 = call i64 @lean_unbox(ptr noundef %8)
  %10 = trunc i64 %9 to i8
  store i8 %10, ptr %5, align 1, !tbaa !12
  %11 = load ptr, ptr %3, align 8, !tbaa !8
  call void @lean_dec(ptr noundef %11)
  %12 = load i8, ptr %5, align 1, !tbaa !12
  %13 = load ptr, ptr %4, align 8, !tbaa !8
  %14 = call ptr @l_Lean_Meta_Grind_Canon_instReprShouldCanonResult(i8 noundef zeroext %12, ptr noundef %13)
  store ptr %14, ptr %6, align 8, !tbaa !8
  %15 = load ptr, ptr %4, align 8, !tbaa !8
  call void @lean_dec(ptr noundef %15)
  %16 = load ptr, ptr %6, align 8, !tbaa !8
  call void @llvm.lifetime.end.p0(i64 8, ptr %6) #7
  call void @llvm.lifetime.end.p0(i64 1, ptr %5) #7
  ret ptr %16
}