; Function Attrs: nounwind uwtable
define ptr @l_Lean_Meta_Grind_Canon_instReprShouldCanonResult___boxed(ptr noundef %0, ptr noundef %1) local_unnamed_addr #1 {
  %3 = ptrtoint ptr %0 to i64
  %4 = lshr i64 %3, 1
  %5 = trunc i64 %4 to i8
  %6 = and i64 %3, 1
  %.not = icmp eq i64 %6, 0
  br i1 %.not, label %7, label %lean_dec.exit5

7:                                                ; preds = %2
  %8 = load i32, ptr %0, align 4, !tbaa !4
  %9 = icmp sgt i32 %8, 1
  br i1 %9, label %10, label %12, !prof !11

10:                                               ; preds = %7
  %11 = add nsw i32 %8, -1
  store i32 %11, ptr %0, align 4, !tbaa !4
  br label %lean_dec.exit5

12:                                               ; preds = %7
  %.not.i = icmp eq i32 %8, 0
  br i1 %.not.i, label %lean_dec.exit5, label %13

13:                                               ; preds = %12
  tail call void @lean_dec_ref_cold(ptr noundef nonnull %0) #9
  br label %lean_dec.exit5

lean_dec.exit5:                                   ; preds = %13, %12, %10, %2
  %14 = icmp ult i8 %5, 3
  br i1 %14, label %switch.lookup, label %l_Lean_Meta_Grind_Canon_instReprShouldCanonResult.exit

switch.lookup:                                    ; preds = %lean_dec.exit5
  %15 = and i64 %4, 3
  %switch.gep = getelementptr inbounds nuw [3 x ptr], ptr @switch.table.l_Std_Range_forIn_x27_loop___at_Lean_Meta_Grind_Canon_canonImpl_visit___spec__10___lambda__3, i64 0, i64 %15
  %switch.load = load ptr, ptr %switch.gep, align 8
  br label %l_Lean_Meta_Grind_Canon_instReprShouldCanonResult.exit

l_Lean_Meta_Grind_Canon_instReprShouldCanonResult.exit: ; preds = %lean_dec.exit5, %switch.lookup
  %.0.in.i = phi ptr [ %switch.load, %switch.lookup ], [ @l_Lean_Meta_Grind_Canon_instReprShouldCanonResult___closed__8, %lean_dec.exit5 ]
  %.0.i = load ptr, ptr %.0.in.i, align 8, !tbaa !9
  %16 = ptrtoint ptr %1 to i64
  %17 = and i64 %16, 1
  %.not8 = icmp eq i64 %17, 0
  br i1 %.not8, label %18, label %lean_dec.exit

18:                                               ; preds = %l_Lean_Meta_Grind_Canon_instReprShouldCanonResult.exit
  %19 = load i32, ptr %1, align 4, !tbaa !4
  %20 = icmp sgt i32 %19, 1
  br i1 %20, label %21, label %23, !prof !11

21:                                               ; preds = %18
  %22 = add nsw i32 %19, -1
  store i32 %22, ptr %1, align 4, !tbaa !4
  br label %lean_dec.exit

23:                                               ; preds = %18
  %.not.i6 = icmp eq i32 %19, 0
  br i1 %.not.i6, label %lean_dec.exit, label %24

24:                                               ; preds = %23
  tail call void @lean_dec_ref_cold(ptr noundef nonnull %1) #9
  br label %lean_dec.exit

lean_dec.exit:                                    ; preds = %24, %23, %21, %l_Lean_Meta_Grind_Canon_instReprShouldCanonResult.exit
  ret ptr %.0.i
}